target datalayout = "e-m:e-p270:32:32-p271:32:32-p272:64:64-i64:64-i128:128-f80:128-n8:16:32:64-S128"
target triple = "x86_64-pc-linux-gnu"

%"class.std::vector" = type { %"struct.std::_Vector_base" }
%"struct.std::_Vector_base" = type { %"struct.std::_Vector_base<double, std::allocator<double>>::_Vector_impl" }
%"struct.std::_Vector_base<double, std::allocator<double>>::_Vector_impl" = type { %"struct.std::_Vector_base<double, std::allocator<double>>::_Vector_impl_data" }
%"struct.std::_Vector_base<double, std::allocator<double>>::_Vector_impl_data" = type { ptr, ptr, ptr }

@_ZN8LightGBM13DCGCalculator11label_gain_E = global %"class.std::vector" zeroinitializer, align 8
@.str.10 = private unnamed_addr constant [111 x i8] c"label should be int type (met %f) for ranking task,\0Afor the gain of label, please set the label_gain parameter\00", align 1
@.str.11 = private unnamed_addr constant [55 x i8] c"Label should be non-negative (met %f) for ranking task\00", align 1
@.str.12 = private unnamed_addr constant [62 x i8] c"Label %zu is not less than the number of label mappings (%zu)\00", align 1

; Function Attrs: mustprogress nounwind uwtable
define linkonce_odr noundef i64 @_ZNKSt6vectorIdSaIdEE4sizeEv(ptr noundef nonnull align 8 dereferenceable(24) %0) #4 comdat align 2 {
  %2 = alloca ptr, align 8
  store ptr %0, ptr %2, align 8, !tbaa !4
  %3 = load ptr, ptr %2, align 8
  %4 = getelementptr inbounds nuw %"struct.std::_Vector_base", ptr %3, i32 0, i32 0
  %5 = getelementptr inbounds nuw %"struct.std::_Vector_base<double, std::allocator<double>>::_Vector_impl_data", ptr %4, i32 0, i32 1
  %6 = load ptr, ptr %5, align 8, !tbaa !12
  %7 = getelementptr inbounds nuw %"struct.std::_Vector_base", ptr %3, i32 0, i32 0
  %8 = getelementptr inbounds nuw %"struct.std::_Vector_base<double, std::allocator<double>>::_Vector_impl_data", ptr %7, i32 0, i32 0
  %9 = load ptr, ptr %8, align 8, !tbaa !9
  %10 = ptrtoint ptr %6 to i64
  %11 = ptrtoint ptr %9 to i64
  %12 = sub i64 %10, %11
  %13 = sdiv exact i64 %12, 8
  ret i64 %13
}

; Function Attrs: inlinehint mustprogress nounwind uwtable
define linkonce_odr noundef float @_ZSt4fabsf(float noundef %0) #10 comdat {
  %2 = alloca float, align 4
  store float %0, ptr %2, align 4, !tbaa !104
  %3 = load float, ptr %2, align 4, !tbaa !104
  %4 = call float @llvm.fabs.f32(float %3)
  ret float %4
}

; Function Attrs: mustprogress uwtable
define void @_ZN8LightGBM13DCGCalculator10CheckLabelEPKfi(ptr noundef %0, i32 noundef %1) #7 align 2 {
  %3 = alloca ptr, align 8
  %4 = alloca i32, align 4
  %5 = alloca i32, align 4
  %6 = alloca float, align 4
  store ptr %0, ptr %3, align 8, !tbaa !102
  store i32 %1, ptr %4, align 4, !tbaa !29
  call void @llvm.lifetime.start.p0(i64 4, ptr %5) #3
  store i32 0, ptr %5, align 4, !tbaa !29
  br label %7

7:                                                ; preds = %68, %2
  %8 = load i32, ptr %5, align 4, !tbaa !29
  %9 = load i32, ptr %4, align 4, !tbaa !29
  %10 = icmp slt i32 %8, %9
  br i1 %10, label %12, label %11

11:                                               ; preds = %7
  call void @llvm.lifetime.end.p0(i64 4, ptr %5) #3
  br label %71

12:                                               ; preds = %7
  call void @llvm.lifetime.start.p0(i64 4, ptr %6) #3
  %13 = load ptr, ptr %3, align 8, !tbaa !102
  %14 = load i32, ptr %5, align 4, !tbaa !29
  %15 = sext i32 %14 to i64
  %16 = getelementptr inbounds float, ptr %13, i64 %15
  %17 = load float, ptr %16, align 4, !tbaa !104
  %18 = load ptr, ptr %3, align 8, !tbaa !102
  %19 = load i32, ptr %5, align 4, !tbaa !29
  %20 = sext i32 %19 to i64
  %21 = getelementptr inbounds float, ptr %18, i64 %20
  %22 = load float, ptr %21, align 4, !tbaa !104
  %23 = fptosi float %22 to i32
  %24 = sitofp i32 %23 to float
  %25 = fsub float %17, %24
  %26 = call noundef float @_ZSt4fabsf(float noundef %25)
  store float %26, ptr %6, align 4, !tbaa !104
  %27 = load float, ptr %6, align 4, !tbaa !104
  %28 = fcmp ogt float %27, 0x3CD203AFA0000000
  br i1 %28, label %29, label %36

29:                                               ; preds = %12
  %30 = load ptr, ptr %3, align 8, !tbaa !102
  %31 = load i32, ptr %5, align 4, !tbaa !29
  %32 = sext i32 %31 to i64
  %33 = getelementptr inbounds float, ptr %30, i64 %32
  %34 = load float, ptr %33, align 4, !tbaa !104
  %35 = fpext float %34 to double
  call void (ptr, ...) @_ZN8LightGBM3Log5FatalEPKcz(ptr noundef @.str.10, double noundef %35)
  br label %36

36:                                               ; preds = %29, %12
  %37 = load ptr, ptr %3, align 8, !tbaa !102
  %38 = load i32, ptr %5, align 4, !tbaa !29
  %39 = sext i32 %38 to i64
  %40 = getelementptr inbounds float, ptr %37, i64 %39
  %41 = load float, ptr %40, align 4, !tbaa !104
  %42 = fcmp olt float %41, 0.000000e+00
  br i1 %42, label %43, label %50

43:                                               ; preds = %36
  %44 = load ptr, ptr %3, align 8, !tbaa !102
  %45 = load i32, ptr %5, align 4, !tbaa !29
  %46 = sext i32 %45 to i64
  %47 = getelementptr inbounds float, ptr %44, i64 %46
  %48 = load float, ptr %47, align 4, !tbaa !104
  %49 = fpext float %48 to double
  call void (ptr, ...) @_ZN8LightGBM3Log5FatalEPKcz(ptr noundef @.str.11, double noundef %49)
  br label %50

50:                                               ; preds = %43, %36
  %51 = load ptr, ptr %3, align 8, !tbaa !102
  %52 = load i32, ptr %5, align 4, !tbaa !29
  %53 = sext i32 %52 to i64
  %54 = getelementptr inbounds float, ptr %51, i64 %53
  %55 = load float, ptr %54, align 4, !tbaa !104
  %56 = fptoui float %55 to i64
  %57 = call noundef i64 @_ZNKSt6vectorIdSaIdEE4sizeEv(ptr noundef nonnull align 8 dereferenceable(24) @_ZN8LightGBM13DCGCalculator11label_gain_E) #3
  %58 = icmp uge i64 %56, %57
  br i1 %58, label %59, label %67

59:                                               ; preds = %50
  %60 = load ptr, ptr %3, align 8, !tbaa !102
  %61 = load i32, ptr %5, align 4, !tbaa !29
  %62 = sext i32 %61 to i64
  %63 = getelementptr inbounds float, ptr %60, i64 %62
  %64 = load float, ptr %63, align 4, !tbaa !104
  %65 = fptoui float %64 to i64
  %66 = call noundef i64 @_ZNKSt6vectorIdSaIdEE4sizeEv(ptr noundef nonnull align 8 dereferenceable(24) @_ZN8LightGBM13DCGCalculator11label_gain_E) #3
  call void (ptr, ...) @_ZN8LightGBM3Log5FatalEPKcz(ptr noundef @.str.12, i64 noundef %65, i64 noundef %66)
  br label %67

67:                                               ; preds = %59, %50
  call void @llvm.lifetime.end.p0(i64 4, ptr %6) #3
  br label %68

68:                                               ; preds = %67
  %69 = load i32, ptr %5, align 4, !tbaa !29
  %70 = add nsw i32 %69, 1
  store i32 %70, ptr %5, align 4, !tbaa !29
  br label %7, !llvm.loop !162

71:                                               ; preds = %11
  ret void
}