; Function Attrs: mustprogress uwtable
define void @_ZN8LightGBM13DCGCalculator10CheckLabelEPKfi(ptr noundef readonly captures(none) %0, i32 noundef %1) local_unnamed_addr #5 align 2 {
  %3 = icmp sgt i32 %1, 0
  br i1 %3, label %.lr.ph.preheader, label %._crit_edge

.lr.ph.preheader:                                 ; preds = %2
  %wide.trip.count = zext nneg i32 %1 to i64
  br label %.lr.ph

._crit_edge:                                      ; preds = %28, %2
  ret void

.lr.ph:                                           ; preds = %.lr.ph.preheader, %28
  %indvars.iv = phi i64 [ 0, %.lr.ph.preheader ], [ %indvars.iv.next, %28 ]
  %4 = getelementptr inbounds nuw float, ptr %0, i64 %indvars.iv
  %5 = load float, ptr %4, align 4, !tbaa !40
  %6 = fptosi float %5 to i32
  %7 = sitofp i32 %6 to float
  %8 = fsub float %5, %7
  %9 = tail call noundef float @llvm.fabs.f32(float %8)
  %10 = fcmp ogt float %9, 0x3CD203AFA0000000
  br i1 %10, label %11, label %13

11:                                               ; preds = %.lr.ph
  %12 = fpext float %5 to double
  tail call void (ptr, ...) @_ZN8LightGBM3Log5FatalEPKcz(ptr noundef nonnull @.str.10, double noundef %12)
  %.pre = load float, ptr %4, align 4, !tbaa !40
  br label %13

13:                                               ; preds = %11, %.lr.ph
  %14 = phi float [ %.pre, %11 ], [ %5, %.lr.ph ]
  %15 = fcmp olt float %14, 0.000000e+00
  br i1 %15, label %16, label %18

16:                                               ; preds = %13
  %17 = fpext float %14 to double
  tail call void (ptr, ...) @_ZN8LightGBM3Log5FatalEPKcz(ptr noundef nonnull @.str.11, double noundef %17)
  %.pre20 = load float, ptr %4, align 4, !tbaa !40
  br label %18

18:                                               ; preds = %16, %13
  %19 = phi float [ %.pre20, %16 ], [ %14, %13 ]
  %20 = fptoui float %19 to i64
  %21 = load ptr, ptr getelementptr inbounds nuw (i8, ptr @_ZN8LightGBM13DCGCalculator11label_gain_E, i64 8), align 8, !tbaa !36
  %22 = load ptr, ptr @_ZN8LightGBM13DCGCalculator11label_gain_E, align 8, !tbaa !4
  %23 = ptrtoint ptr %21 to i64
  %24 = ptrtoint ptr %22 to i64
  %25 = sub i64 %23, %24
  %26 = ashr exact i64 %25, 3
  %.not = icmp ugt i64 %26, %20
  br i1 %.not, label %28, label %27

27:                                               ; preds = %18
  tail call void (ptr, ...) @_ZN8LightGBM3Log5FatalEPKcz(ptr noundef nonnull @.str.12, i64 noundef %20, i64 noundef %26)
  br label %28

28:                                               ; preds = %27, %18
  %indvars.iv.next = add nuw nsw i64 %indvars.iv, 1
  %exitcond.not = icmp eq i64 %indvars.iv.next, %wide.trip.count
  br i1 %exitcond.not, label %._crit_edge, label %.lr.ph, !llvm.loop !70
}